target datalayout = "e-m:e-p270:32:32-p271:32:32-p272:64:64-i64:64-i128:128-f80:128-n8:16:32:64-S128"
target triple = "x86_64-pc-linux-gnu"

%struct.expert_field = type { i32, i32 }
%struct._packet_info = type { ptr, ptr, i32, i32, %struct.nstime_t, %struct.nstime_t, %struct.nstime_t, i8, ptr, ptr, ptr, ptr, %struct._address, %struct._address, %struct._address, %struct._address, %struct._address, %struct._address, i32, ptr, i8, [3 x i8], %struct.anon, i32, i32, i32, i32, ptr, i8, ptr, ptr, i16, i16, i32, i32, i16, i32, i32, ptr, ptr, ptr, i8, i8, i16, i16, i16, i32, i16, i16, ptr, ptr, ptr, ptr, ptr, i32, i32 }
%struct.nstime_t = type { i64, i32 }
%struct._address = type { i32, i32, ptr, ptr }
%struct.anon = type { i8, [3 x i8] }
%struct.fp_info = type { i32, i32, i8, i16, i8, i8, i32, i8, i32, [64 x i32], [64 x i32], i32, [16 x i8], [16 x i32], [16 x i32], i8, i32, i32, i32, i16, i16, i32, ptr, ptr, i32, i32, [8 x i8], i32, i32, i32, i8 }
%struct.rlc_info = type { [64 x i32], [64 x i8], [64 x i8], [64 x i32], [64 x i8], [64 x i8] }

@ett_rlc = internal global i32 0, align 4
@ei_rlc_no_per_frame_data = internal global %struct.expert_field zeroinitializer, align 4
@.str.126 = private unnamed_addr constant [4 x i8] c"RLC\00", align 1
@proto_umts_rlc = hidden global i32 0, align 4
@proto_fp = external global i32, align 4
@.str.224 = private unnamed_addr constant [11 x i8] c" UM (DCCH)\00", align 1
@.str.225 = private unnamed_addr constant [11 x i8] c" AM (DCCH)\00", align 1

; Function Attrs: null_pointer_is_valid sspstrong uwtable
define internal i32 @dissect_rlc_dcch(ptr noundef %0, ptr noundef %1, ptr noundef %2, ptr noundef %3) #0 {
  %5 = alloca i32, align 4
  %6 = alloca ptr, align 8
  %7 = alloca ptr, align 8
  %8 = alloca ptr, align 8
  %9 = alloca ptr, align 8
  %10 = alloca ptr, align 8
  %11 = alloca ptr, align 8
  %12 = alloca ptr, align 8
  %13 = alloca ptr, align 8
  %14 = alloca i32, align 4
  %15 = alloca ptr, align 8
  %16 = alloca i32, align 4
  store ptr %0, ptr %6, align 8
  store ptr %1, ptr %7, align 8
  store ptr %2, ptr %8, align 8
  store ptr %3, ptr %9, align 8
  call void @llvm.lifetime.start.p0(i64 8, ptr %10) #18
  store ptr null, ptr %10, align 8
  call void @llvm.lifetime.start.p0(i64 8, ptr %11) #18
  store ptr null, ptr %11, align 8
  call void @llvm.lifetime.start.p0(i64 8, ptr %12) #18
  call void @llvm.lifetime.start.p0(i64 8, ptr %13) #18
  call void @llvm.lifetime.start.p0(i64 4, ptr %14) #18
  call void @llvm.lifetime.start.p0(i64 8, ptr %15) #18
  %17 = load ptr, ptr %9, align 8
  store ptr %17, ptr %15, align 8
  %18 = load ptr, ptr %7, align 8
  %19 = getelementptr inbounds nuw %struct._packet_info, ptr %18, i32 0, i32 1
  %20 = load ptr, ptr %19, align 8
  call void @col_set_str(ptr noundef %20, i32 noundef 35, ptr noundef @.str.126)
  %21 = load ptr, ptr %7, align 8
  %22 = getelementptr inbounds nuw %struct._packet_info, ptr %21, i32 0, i32 1
  %23 = load ptr, ptr %22, align 8
  call void @col_clear(ptr noundef %23, i32 noundef 25)
  %24 = call ptr @wmem_file_scope()
  %25 = load ptr, ptr %7, align 8
  %26 = load i32, ptr @proto_fp, align 4
  %27 = call ptr @p_get_proto_data(ptr noundef %24, ptr noundef %25, i32 noundef %26, i32 noundef 0)
  store ptr %27, ptr %12, align 8
  %28 = call ptr @wmem_file_scope()
  %29 = load ptr, ptr %7, align 8
  %30 = load i32, ptr @proto_umts_rlc, align 4
  %31 = call ptr @p_get_proto_data(ptr noundef %28, ptr noundef %29, i32 noundef %30, i32 noundef 0)
  store ptr %31, ptr %13, align 8
  %32 = load ptr, ptr %12, align 8
  %33 = icmp ne ptr %32, null
  br i1 %33, label %34, label %37

34:                                               ; preds = %4
  %35 = load ptr, ptr %13, align 8
  %36 = icmp ne ptr %35, null
  br i1 %36, label %42, label %37

37:                                               ; preds = %34, %4
  %38 = load ptr, ptr %8, align 8
  %39 = load ptr, ptr %7, align 8
  %40 = load ptr, ptr %6, align 8
  %41 = call ptr @proto_tree_add_expert(ptr noundef %38, ptr noundef %39, ptr noundef @ei_rlc_no_per_frame_data, ptr noundef %40, i32 noundef 0, i32 noundef -1)
  store i32 1, ptr %5, align 4
  store i32 1, ptr %16, align 4
  br label %87

42:                                               ; preds = %34
  %43 = load ptr, ptr %8, align 8
  %44 = icmp ne ptr %43, null
  br i1 %44, label %45, label %53

45:                                               ; preds = %42
  %46 = load ptr, ptr %8, align 8
  %47 = load i32, ptr @proto_umts_rlc, align 4
  %48 = load ptr, ptr %6, align 8
  %49 = call ptr @proto_tree_add_item(ptr noundef %46, i32 noundef %47, ptr noundef %48, i32 noundef 0, i32 noundef -1, i32 noundef 0)
  store ptr %49, ptr %10, align 8
  %50 = load ptr, ptr %10, align 8
  %51 = load i32, ptr @ett_rlc, align 4
  %52 = call ptr @proto_item_add_subtree(ptr noundef %50, i32 noundef %51)
  store ptr %52, ptr %11, align 8
  br label %53

53:                                               ; preds = %45, %42
  %54 = load ptr, ptr %12, align 8
  %55 = getelementptr inbounds nuw %struct.fp_info, ptr %54, i32 0, i32 5
  %56 = load i8, ptr %55, align 1, !range !8, !noundef !9
  %57 = trunc i8 %56 to i1
  %58 = select i1 %57, i32 4, i32 5
  store i32 %58, ptr %14, align 4
  %59 = load ptr, ptr %13, align 8
  %60 = getelementptr inbounds nuw %struct.rlc_info, ptr %59, i32 0, i32 1
  %61 = load ptr, ptr %12, align 8
  %62 = getelementptr inbounds nuw %struct.fp_info, ptr %61, i32 0, i32 16
  %63 = load i32, ptr %62, align 4
  %64 = sext i32 %63 to i64
  %65 = getelementptr [64 x i8], ptr %60, i64 0, i64 %64
  %66 = load i8, ptr %65, align 1
  %67 = zext i8 %66 to i32
  switch i32 %67, label %84 [
    i32 1, label %68
    i32 2, label %76
  ]

68:                                               ; preds = %53
  %69 = load ptr, ptr %10, align 8
  call void (ptr, ptr, ...) @proto_item_append_text(ptr noundef %69, ptr noundef @.str.224)
  %70 = load i32, ptr %14, align 4
  %71 = load ptr, ptr %6, align 8
  %72 = load ptr, ptr %7, align 8
  %73 = load ptr, ptr %8, align 8
  %74 = load ptr, ptr %11, align 8
  %75 = load ptr, ptr %15, align 8
  call void @dissect_rlc_um(i32 noundef %70, ptr noundef %71, ptr noundef %72, ptr noundef %73, ptr noundef %74, ptr noundef %75)
  br label %84

76:                                               ; preds = %53
  %77 = load ptr, ptr %10, align 8
  call void (ptr, ptr, ...) @proto_item_append_text(ptr noundef %77, ptr noundef @.str.225)
  %78 = load i32, ptr %14, align 4
  %79 = load ptr, ptr %6, align 8
  %80 = load ptr, ptr %7, align 8
  %81 = load ptr, ptr %8, align 8
  %82 = load ptr, ptr %11, align 8
  %83 = load ptr, ptr %15, align 8
  call void @dissect_rlc_am(i32 noundef %78, ptr noundef %79, ptr noundef %80, ptr noundef %81, ptr noundef %82, ptr noundef %83)
  br label %84

84:                                               ; preds = %53, %76, %68
  %85 = load ptr, ptr %6, align 8
  %86 = call i32 @tvb_captured_length(ptr noundef %85)
  store i32 %86, ptr %5, align 4
  store i32 1, ptr %16, align 4
  br label %87

87:                                               ; preds = %84, %37
  call void @llvm.lifetime.end.p0(i64 8, ptr %15) #18
  call void @llvm.lifetime.end.p0(i64 4, ptr %14) #18
  call void @llvm.lifetime.end.p0(i64 8, ptr %13) #18
  call void @llvm.lifetime.end.p0(i64 8, ptr %12) #18
  call void @llvm.lifetime.end.p0(i64 8, ptr %11) #18
  call void @llvm.lifetime.end.p0(i64 8, ptr %10) #18
  %88 = load i32, ptr %5, align 4
  ret i32 %88
}