; Function Attrs: null_pointer_is_valid sspstrong uwtable
define internal i32 @dissect_rlc_dcch(ptr noundef %0, ptr noundef %1, ptr noundef %2, ptr noundef captures(address_is_null) %3) #0 {
  %5 = getelementptr inbounds nuw i8, ptr %1, i64 8
  %6 = load ptr, ptr %5, align 8
  tail call void @col_set_str(ptr noundef %6, i32 noundef 35, ptr noundef nonnull @.str.126)
  %7 = load ptr, ptr %5, align 8
  tail call void @col_clear(ptr noundef %7, i32 noundef 25)
  %8 = tail call ptr @wmem_file_scope()
  %9 = load i32, ptr @proto_fp, align 4
  %10 = tail call ptr @p_get_proto_data(ptr noundef %8, ptr noundef %1, i32 noundef %9, i32 noundef 0)
  %11 = tail call ptr @wmem_file_scope()
  %12 = load i32, ptr @proto_umts_rlc, align 4
  %13 = tail call ptr @p_get_proto_data(ptr noundef %11, ptr noundef %1, i32 noundef %12, i32 noundef 0)
  %14 = icmp ne ptr %10, null
  %15 = icmp ne ptr %13, null
  %or.cond = select i1 %14, i1 %15, i1 false
  br i1 %or.cond, label %18, label %16

16:                                               ; preds = %4
  %17 = tail call ptr @proto_tree_add_expert(ptr noundef %2, ptr noundef %1, ptr noundef nonnull @ei_rlc_no_per_frame_data, ptr noundef %0, i32 noundef 0, i32 noundef -1)
  br label %39

18:                                               ; preds = %4
  %.not = icmp eq ptr %2, null
  br i1 %.not, label %24, label %19

19:                                               ; preds = %18
  %20 = load i32, ptr @proto_umts_rlc, align 4
  %21 = tail call ptr @proto_tree_add_item(ptr noundef nonnull %2, i32 noundef %20, ptr noundef %0, i32 noundef 0, i32 noundef -1, i32 noundef 0)
  %22 = load i32, ptr @ett_rlc, align 4
  %23 = tail call ptr @proto_item_add_subtree(ptr noundef %21, i32 noundef %22)
  br label %24

24:                                               ; preds = %19, %18
  %.034 = phi ptr [ %23, %19 ], [ null, %18 ]
  %.033 = phi ptr [ %21, %19 ], [ null, %18 ]
  %25 = getelementptr inbounds nuw i8, ptr %10, i64 13
  %26 = load i8, ptr %25, align 1, !range !6, !noundef !7
  %27 = trunc nuw i8 %26 to i1
  %28 = select i1 %27, i32 4, i32 5
  %29 = getelementptr inbounds nuw i8, ptr %13, i64 256
  %30 = getelementptr inbounds nuw i8, ptr %10, i64 692
  %31 = load i32, ptr %30, align 4
  %32 = sext i32 %31 to i64
  %33 = getelementptr [64 x i8], ptr %29, i64 0, i64 %32
  %34 = load i8, ptr %33, align 1
  switch i8 %34, label %37 [
    i8 1, label %35
    i8 2, label %36
  ]

35:                                               ; preds = %24
  tail call void (ptr, ptr, ...) @proto_item_append_text(ptr noundef %.033, ptr noundef nonnull @.str.224)
  tail call fastcc void @dissect_rlc_um(i32 noundef %28, ptr noundef %0, ptr noundef %1, ptr noundef %2, ptr noundef %.034, ptr noundef %3)
  br label %37

36:                                               ; preds = %24
  tail call void (ptr, ptr, ...) @proto_item_append_text(ptr noundef %.033, ptr noundef nonnull @.str.225)
  tail call fastcc void @dissect_rlc_am(i32 noundef %28, ptr noundef %0, ptr noundef %1, ptr noundef %2, ptr noundef %.034, ptr noundef %3)
  br label %37

37:                                               ; preds = %36, %35, %24
  %38 = tail call i32 @tvb_captured_length(ptr noundef %0)
  br label %39

39:                                               ; preds = %37, %16
  %.0 = phi i32 [ %38, %37 ], [ 1, %16 ]
  ret i32 %.0
}